; Function Attrs: nounwind uwtable
define range(i32 -1, 1) i32 @H5VLcmp_connector_cls(ptr noundef %0, i64 noundef %1, i64 noundef %2) local_unnamed_addr #0 {
  %4 = alloca %struct.H5CX_node_t, align 8
  call void @llvm.lifetime.start.p0(i64 480, ptr nonnull %4) #4
  call void @llvm.memset.p0.i64(ptr noundef nonnull align 8 dereferenceable(480) %4, i8 0, i64 480, i1 false)
  %5 = load i8, ptr @H5_libinit_g, align 1, !tbaa !3, !range !7, !noundef !8
  %6 = trunc nuw i8 %5 to i1
  %7 = load i8, ptr @H5_libterm_g, align 1, !range !7
  %8 = trunc nuw i8 %7 to i1
  %9 = select i1 %6, i1 true, i1 %8
  br i1 %9, label %17, label %10, !prof !9

10:                                               ; preds = %3
  %11 = tail call i32 @H5_init_library() #4
  %12 = icmp slt i32 %11, 0
  br i1 %12, label %13, label %._crit_edge, !prof !10

._crit_edge:                                      ; preds = %10
  %.pre = load i8, ptr @H5_libterm_g, align 1, !range !7
  br label %17

13:                                               ; preds = %10
  %14 = load i64, ptr @H5E_FUNC_g, align 8, !tbaa !11
  %15 = load i64, ptr @H5E_CANTINIT_g, align 8, !tbaa !11
  %16 = tail call i32 (ptr, ptr, i32, i64, i64, ptr, ...) @H5E_printf_stack(ptr noundef nonnull @.str, ptr noundef nonnull @__func__.H5VLcmp_connector_cls, i32 noundef 521, i64 noundef %14, i64 noundef %15, ptr noundef nonnull @.str.1) #4
  br label %.thread25

17:                                               ; preds = %._crit_edge, %3
  %18 = phi i8 [ %.pre, %._crit_edge ], [ %7, %3 ]
  %19 = load i8, ptr @H5VL_init_g, align 1, !tbaa !3, !range !7, !noundef !8
  %20 = trunc nuw i8 %19 to i1
  %21 = trunc nuw i8 %18 to i1
  %22 = select i1 %20, i1 true, i1 %21
  br i1 %22, label %30, label %23, !prof !9

23:                                               ; preds = %17
  store i8 1, ptr @H5VL_init_g, align 1, !tbaa !3
  %24 = tail call i32 @H5VL__init_package() #4
  %25 = icmp slt i32 %24, 0
  br i1 %25, label %26, label %30, !prof !16

26:                                               ; preds = %23
  store i8 0, ptr @H5VL_init_g, align 1, !tbaa !3
  %27 = load i64, ptr @H5E_FUNC_g, align 8, !tbaa !11
  %28 = load i64, ptr @H5E_CANTINIT_g, align 8, !tbaa !11
  %29 = tail call i32 (ptr, ptr, i32, i64, i64, ptr, ...) @H5E_printf_stack(ptr noundef nonnull @.str, ptr noundef nonnull @__func__.H5VLcmp_connector_cls, i32 noundef 521, i64 noundef %27, i64 noundef %28, ptr noundef nonnull @.str.2) #4
  br label %.thread25

30:                                               ; preds = %17, %23
  %31 = call i32 @H5CX_push(ptr noundef nonnull %4) #4
  %32 = icmp slt i32 %31, 0
  br i1 %32, label %33, label %37, !prof !10

33:                                               ; preds = %30
  %34 = load i64, ptr @H5E_FUNC_g, align 8, !tbaa !11
  %35 = load i64, ptr @H5E_CANTSET_g, align 8, !tbaa !11
  %36 = call i32 (ptr, ptr, i32, i64, i64, ptr, ...) @H5E_printf_stack(ptr noundef nonnull @.str, ptr noundef nonnull @__func__.H5VLcmp_connector_cls, i32 noundef 521, i64 noundef %34, i64 noundef %35, ptr noundef nonnull @.str.3) #4
  br label %.thread25

37:                                               ; preds = %30
  %38 = call i32 @H5E_clear_stack() #4
  %39 = call ptr @H5I_object_verify(i64 noundef %1, i32 noundef 9) #4
  %40 = icmp eq ptr %39, null
  br i1 %40, label %41, label %45, !prof !17

41:                                               ; preds = %37
  %42 = load i64, ptr @H5E_ARGS_g, align 8, !tbaa !11
  %43 = load i64, ptr @H5E_BADTYPE_g, align 8, !tbaa !11
  %44 = call i32 (ptr, ptr, i32, i64, i64, ptr, ...) @H5E_printf_stack(ptr noundef nonnull @.str, ptr noundef nonnull @__func__.H5VLcmp_connector_cls, i32 noundef 525, i64 noundef %42, i64 noundef %43, ptr noundef nonnull @.str.19) #4
  br label %.thread31

45:                                               ; preds = %37
  %46 = call ptr @H5I_object_verify(i64 noundef %2, i32 noundef 9) #4
  %47 = icmp eq ptr %46, null
  br i1 %47, label %48, label %52, !prof !17

48:                                               ; preds = %45
  %49 = load i64, ptr @H5E_ARGS_g, align 8, !tbaa !11
  %50 = load i64, ptr @H5E_BADTYPE_g, align 8, !tbaa !11
  %51 = call i32 (ptr, ptr, i32, i64, i64, ptr, ...) @H5E_printf_stack(ptr noundef nonnull @.str, ptr noundef nonnull @__func__.H5VLcmp_connector_cls, i32 noundef 527, i64 noundef %49, i64 noundef %50, ptr noundef nonnull @.str.19) #4
  br label %.thread31

52:                                               ; preds = %45
  %53 = load ptr, ptr %39, align 8, !tbaa !24
  %54 = load ptr, ptr %46, align 8, !tbaa !24
  %55 = call i32 @H5VL_cmp_connector_cls(ptr noundef %0, ptr noundef %53, ptr noundef %54) #4
  %56 = icmp slt i32 %55, 0
  br i1 %56, label %57, label %62, !prof !17

57:                                               ; preds = %52
  %58 = load i64, ptr @H5E_VOL_g, align 8, !tbaa !11
  %59 = load i64, ptr @H5E_CANTCOMPARE_g, align 8, !tbaa !11
  %60 = call i32 (ptr, ptr, i32, i64, i64, ptr, ...) @H5E_printf_stack(ptr noundef nonnull @.str, ptr noundef nonnull @__func__.H5VLcmp_connector_cls, i32 noundef 531, i64 noundef %58, i64 noundef %59, ptr noundef nonnull @.str.20) #4
  br label %.thread31

.thread31:                                        ; preds = %57, %48, %41
  %61 = call i32 @H5CX_pop(i1 noundef zeroext true) #4
  br label %.thread25

62:                                               ; preds = %52
  %63 = call i32 @H5CX_pop(i1 noundef zeroext true) #4
  br label %65

.thread25:                                        ; preds = %33, %26, %13, %.thread31
  %64 = call i32 @H5E_dump_api_stack() #4
  br label %65

65:                                               ; preds = %62, %.thread25
  %.0142028 = phi i32 [ -1, %.thread25 ], [ 0, %62 ]
  call void @llvm.lifetime.end.p0(i64 480, ptr nonnull %4) #4
  ret i32 %.0142028
}